target datalayout = "e-m:e-p270:32:32-p271:32:32-p272:64:64-i64:64-i128:128-f80:128-n8:16:32:64-S128"
target triple = "x86_64-pc-linux-gnu"

%"struct.LIEF::MachO::DyldChainedFixups::chained_starts_in_segment" = type { i32, i32, i16, i64, i32, i32, %"class.std::vector.24", %"class.std::vector.24", ptr }
%"class.std::vector.24" = type { %"struct.std::_Vector_base.25" }
%"struct.std::_Vector_base.25" = type { %"struct.std::_Vector_base<unsigned short, std::allocator<unsigned short>>::_Vector_impl" }
%"struct.std::_Vector_base<unsigned short, std::allocator<unsigned short>>::_Vector_impl" = type { %"struct.std::_Vector_base<unsigned short, std::allocator<unsigned short>>::_Vector_impl_data" }
%"struct.std::_Vector_base<unsigned short, std::allocator<unsigned short>>::_Vector_impl_data" = type { ptr, ptr, ptr }

; Function Attrs: mustprogress nounwind uwtable
define linkonce_odr hidden void @_ZNSt15__new_allocatorItEC2Ev(ptr noundef nonnull align 1 dereferenceable(1) %0) unnamed_addr #1 comdat align 2 {
  %2 = alloca ptr, align 8
  store ptr %0, ptr %2, align 8
  ret void
}

; Function Attrs: mustprogress nounwind uwtable
define linkonce_odr hidden void @_ZNSt12_Vector_baseItSaItEE17_Vector_impl_dataC2Ev(ptr noundef nonnull align 8 dereferenceable(24) %0) unnamed_addr #1 comdat align 2 {
  %2 = alloca ptr, align 8
  store ptr %0, ptr %2, align 8
  %3 = load ptr, ptr %2, align 8
  %4 = getelementptr inbounds %"struct.std::_Vector_base<unsigned short, std::allocator<unsigned short>>::_Vector_impl_data", ptr %3, i32 0, i32 0
  store ptr null, ptr %4, align 8
  %5 = getelementptr inbounds %"struct.std::_Vector_base<unsigned short, std::allocator<unsigned short>>::_Vector_impl_data", ptr %3, i32 0, i32 1
  store ptr null, ptr %5, align 8
  %6 = getelementptr inbounds %"struct.std::_Vector_base<unsigned short, std::allocator<unsigned short>>::_Vector_impl_data", ptr %3, i32 0, i32 2
  store ptr null, ptr %6, align 8
  ret void
}

; Function Attrs: mustprogress nounwind uwtable
define linkonce_odr hidden void @_ZNSaItEC2Ev(ptr noundef nonnull align 1 dereferenceable(1) %0) unnamed_addr #1 comdat align 2 {
  %2 = alloca ptr, align 8
  store ptr %0, ptr %2, align 8
  %3 = load ptr, ptr %2, align 8
  call void @_ZNSt15__new_allocatorItEC2Ev(ptr noundef nonnull align 1 dereferenceable(1) %3) #16
  ret void
}

; Function Attrs: mustprogress nounwind uwtable
define linkonce_odr hidden void @_ZNSt12_Vector_baseItSaItEE12_Vector_implC2Ev(ptr noundef nonnull align 8 dereferenceable(24) %0) unnamed_addr #1 comdat align 2 {
  %2 = alloca ptr, align 8
  store ptr %0, ptr %2, align 8
  %3 = load ptr, ptr %2, align 8
  call void @_ZNSaItEC2Ev(ptr noundef nonnull align 1 dereferenceable(1) %3) #16
  call void @_ZNSt12_Vector_baseItSaItEE17_Vector_impl_dataC2Ev(ptr noundef nonnull align 8 dereferenceable(24) %3) #16
  ret void
}

; Function Attrs: mustprogress nounwind uwtable
define linkonce_odr hidden void @_ZNSt12_Vector_baseItSaItEEC2Ev(ptr noundef nonnull align 8 dereferenceable(24) %0) unnamed_addr #1 comdat align 2 {
  %2 = alloca ptr, align 8
  store ptr %0, ptr %2, align 8
  %3 = load ptr, ptr %2, align 8
  %4 = getelementptr inbounds %"struct.std::_Vector_base.25", ptr %3, i32 0, i32 0
  call void @_ZNSt12_Vector_baseItSaItEE12_Vector_implC2Ev(ptr noundef nonnull align 8 dereferenceable(24) %4) #16
  ret void
}

; Function Attrs: mustprogress nounwind uwtable
define linkonce_odr hidden void @_ZNSt6vectorItSaItEEC2Ev(ptr noundef nonnull align 8 dereferenceable(24) %0) unnamed_addr #1 comdat align 2 {
  %2 = alloca ptr, align 8
  store ptr %0, ptr %2, align 8
  %3 = load ptr, ptr %2, align 8
  call void @_ZNSt12_Vector_baseItSaItEEC2Ev(ptr noundef nonnull align 8 dereferenceable(24) %3) #16
  ret void
}

; Function Attrs: mustprogress nounwind uwtable
define void @_ZN4LIEF5MachO17DyldChainedFixups25chained_starts_in_segmentC2EjRNS0_14SegmentCommandE(ptr noundef nonnull align 8 dereferenceable(88) %0, i32 noundef %1, ptr noundef nonnull align 8 dereferenceable(216) %2) unnamed_addr #1 align 2 {
  %4 = alloca ptr, align 8
  %5 = alloca i32, align 4
  %6 = alloca ptr, align 8
  store ptr %0, ptr %4, align 8
  store i32 %1, ptr %5, align 4
  store ptr %2, ptr %6, align 8
  %7 = load ptr, ptr %4, align 8
  %8 = getelementptr inbounds %"struct.LIEF::MachO::DyldChainedFixups::chained_starts_in_segment", ptr %7, i32 0, i32 0
  %9 = load i32, ptr %5, align 4
  store i32 %9, ptr %8, align 8
  %10 = getelementptr inbounds %"struct.LIEF::MachO::DyldChainedFixups::chained_starts_in_segment", ptr %7, i32 0, i32 1
  store i32 0, ptr %10, align 4
  %11 = getelementptr inbounds %"struct.LIEF::MachO::DyldChainedFixups::chained_starts_in_segment", ptr %7, i32 0, i32 2
  store i16 0, ptr %11, align 8
  %12 = getelementptr inbounds %"struct.LIEF::MachO::DyldChainedFixups::chained_starts_in_segment", ptr %7, i32 0, i32 3
  store i64 0, ptr %12, align 8
  %13 = getelementptr inbounds %"struct.LIEF::MachO::DyldChainedFixups::chained_starts_in_segment", ptr %7, i32 0, i32 4
  store i32 0, ptr %13, align 8
  %14 = getelementptr inbounds %"struct.LIEF::MachO::DyldChainedFixups::chained_starts_in_segment", ptr %7, i32 0, i32 6
  call void @_ZNSt6vectorItSaItEEC2Ev(ptr noundef nonnull align 8 dereferenceable(24) %14) #16
  %15 = getelementptr inbounds %"struct.LIEF::MachO::DyldChainedFixups::chained_starts_in_segment", ptr %7, i32 0, i32 7
  call void @_ZNSt6vectorItSaItEEC2Ev(ptr noundef nonnull align 8 dereferenceable(24) %15) #16
  %16 = getelementptr inbounds %"struct.LIEF::MachO::DyldChainedFixups::chained_starts_in_segment", ptr %7, i32 0, i32 8
  %17 = load ptr, ptr %6, align 8
  store ptr %17, ptr %16, align 8
  ret void
}