; Function Attrs: mustprogress nofree norecurse nosync nounwind willreturn memory(argmem: write) uwtable
define void @_ZN4LIEF5MachO17DyldChainedFixups25chained_starts_in_segmentC2EjRNS0_14SegmentCommandE(ptr nocapture noundef nonnull writeonly align 8 dereferenceable(88) %0, i32 noundef %1, ptr noundef nonnull align 8 dereferenceable(216) %2) unnamed_addr #7 align 2 {
  store i32 %1, ptr %0, align 8
  %4 = getelementptr inbounds i8, ptr %0, i64 4
  store i32 0, ptr %4, align 4
  %5 = getelementptr inbounds i8, ptr %0, i64 8
  store i16 0, ptr %5, align 8
  %6 = getelementptr inbounds i8, ptr %0, i64 16
  store i64 0, ptr %6, align 8
  %7 = getelementptr inbounds i8, ptr %0, i64 24
  store i32 0, ptr %7, align 8
  %8 = getelementptr inbounds i8, ptr %0, i64 32
  %9 = getelementptr inbounds i8, ptr %0, i64 80
  tail call void @llvm.memset.p0.i64(ptr noundef nonnull align 8 dereferenceable(48) %8, i8 0, i64 48, i1 false)
  store ptr %2, ptr %9, align 8
  ret void
}